target datalayout = "e-m:e-p270:32:32-p271:32:32-p272:64:64-i64:64-i128:128-f80:128-n8:16:32:64-S128"
target triple = "x86_64-pc-linux-gnu"

%struct.nk_color = type { i8, i8, i8, i8 }

; Function Attrs: nounwind uwtable
define i32 @nk_strlen(ptr noundef %0) #0 {
  %2 = alloca ptr, align 8
  %3 = alloca i32, align 4
  store ptr %0, ptr %2, align 8, !tbaa !26
  call void @llvm.lifetime.start.p0(i64 4, ptr %3) #10
  store i32 0, ptr %3, align 4, !tbaa !13
  br label %4

4:                                                ; preds = %15, %1
  %5 = load ptr, ptr %2, align 8, !tbaa !26
  %6 = icmp ne ptr %5, null
  br i1 %6, label %7, label %13

7:                                                ; preds = %4
  %8 = load ptr, ptr %2, align 8, !tbaa !26
  %9 = getelementptr inbounds nuw i8, ptr %8, i32 1
  store ptr %9, ptr %2, align 8, !tbaa !26
  %10 = load i8, ptr %8, align 1, !tbaa !28
  %11 = sext i8 %10 to i32
  %12 = icmp ne i32 %11, 0
  br label %13

13:                                               ; preds = %7, %4
  %14 = phi i1 [ false, %4 ], [ %12, %7 ]
  br i1 %14, label %15, label %18

15:                                               ; preds = %13
  %16 = load i32, ptr %3, align 4, !tbaa !13
  %17 = add nsw i32 %16, 1
  store i32 %17, ptr %3, align 4, !tbaa !13
  br label %4, !llvm.loop !29

18:                                               ; preds = %13
  %19 = load i32, ptr %3, align 4, !tbaa !13
  call void @llvm.lifetime.end.p0(i64 4, ptr %3) #10
  ret i32 %19
}

; Function Attrs: nounwind uwtable
define void @nk_label_colored(ptr noundef %0, ptr noundef %1, i32 noundef %2, i32 %3) #0 {
  %5 = alloca %struct.nk_color, align 1
  %6 = alloca ptr, align 8
  %7 = alloca ptr, align 8
  %8 = alloca i32, align 4
  store i32 %3, ptr %5, align 1
  store ptr %0, ptr %6, align 8, !tbaa !372
  store ptr %1, ptr %7, align 8, !tbaa !26
  store i32 %2, ptr %8, align 4, !tbaa !13
  %9 = load ptr, ptr %6, align 8, !tbaa !372
  %10 = load ptr, ptr %7, align 8, !tbaa !26
  %11 = load ptr, ptr %7, align 8, !tbaa !26
  %12 = call i32 @nk_strlen(ptr noundef %11)
  %13 = load i32, ptr %8, align 4, !tbaa !13
  %14 = load i32, ptr %5, align 1
  call void @nk_text_colored(ptr noundef %9, ptr noundef %10, i32 noundef %12, i32 noundef %13, i32 %14)
  ret void
}